target datalayout = "e-m:e-p270:32:32-p271:32:32-p272:64:64-i64:64-i128:128-f80:128-n8:16:32:64-S128"
target triple = "x86_64-pc-linux-gnu"

@.str.2 = private unnamed_addr constant [97 x i8] c"generated/home/dtcxzyw/WorkSpace/Projects/compilers/llvm-opt-benchmark/bench/hdf5/hdf5/src/H5T.c\00", align 1
@H5E_DATATYPE_g = external global i64, align 8
@H5E_CANTINIT_g = external global i64, align 8
@H5E_ARGS_g = external global i64, align 8
@H5E_CANTREGISTER_g = external global i64, align 8
@H5_libinit_g = external global i8, align 1
@H5_libterm_g = external global i8, align 1
@H5E_FUNC_g = external global i64, align 8
@.str.221 = private unnamed_addr constant [30 x i8] c"library initialization failed\00", align 1
@H5E_CANTSET_g = external global i64, align 8
@.str.222 = private unnamed_addr constant [22 x i8] c"can't set API context\00", align 1
@H5E_BADVALUE_g = external global i64, align 8
@__func__.H5Tdecode = private unnamed_addr constant [10 x i8] c"H5Tdecode\00", align 1
@.str.280 = private unnamed_addr constant [13 x i8] c"empty buffer\00", align 1
@H5E_CANTDECODE_g = external global i64, align 8
@.str.281 = private unnamed_addr constant [20 x i8] c"can't decode object\00", align 1
@.str.282 = private unnamed_addr constant [29 x i8] c"unable to register data type\00", align 1

; Function Attrs: nounwind uwtable
define i64 @H5Tdecode(ptr noundef %0) #0 {
  %2 = alloca ptr, align 8
  %3 = alloca ptr, align 8
  %4 = alloca i64, align 8
  %5 = alloca i8, align 1
  %6 = alloca i8, align 1
  store ptr %0, ptr %2, align 8
  store i8 0, ptr %5, align 1
  store i8 0, ptr %6, align 1
  %7 = load i8, ptr @H5_libinit_g, align 1
  %8 = trunc i8 %7 to i1
  br i1 %8, label %13, label %9

9:                                                ; preds = %1
  %10 = load i8, ptr @H5_libterm_g, align 1
  %11 = trunc i8 %10 to i1
  %12 = xor i1 %11, true
  br label %13

13:                                               ; preds = %9, %1
  %14 = phi i1 [ false, %1 ], [ %12, %9 ]
  %15 = xor i1 %14, true
  %16 = xor i1 %15, true
  %17 = zext i1 %16 to i32
  %18 = sext i32 %17 to i64
  %19 = icmp ne i64 %18, 0
  br i1 %19, label %20, label %44

20:                                               ; preds = %13
  %21 = call i32 @H5_init_library()
  %22 = icmp slt i32 %21, 0
  %23 = xor i1 %22, true
  %24 = xor i1 %23, true
  %25 = zext i1 %24 to i32
  %26 = sext i32 %25 to i64
  %27 = icmp ne i64 %26, 0
  br i1 %27, label %28, label %43

28:                                               ; preds = %20
  br label %29

29:                                               ; preds = %28
  br label %30

30:                                               ; preds = %29
  br label %31

31:                                               ; preds = %30
  %32 = load i64, ptr @H5E_FUNC_g, align 8
  %33 = load i64, ptr @H5E_CANTINIT_g, align 8
  %34 = call i32 (ptr, ptr, i32, i64, i64, ptr, ...) @H5E_printf_stack(ptr noundef @.str.2, ptr noundef @__func__.H5Tdecode, i32 noundef 3222, i64 noundef %32, i64 noundef %33, ptr noundef @.str.221)
  br label %35

35:                                               ; preds = %31
  store i8 1, ptr %6, align 1
  %36 = load i8, ptr %6, align 1
  %37 = trunc i8 %36 to i1
  %38 = zext i1 %37 to i8
  store i8 %38, ptr %6, align 1
  br label %39

39:                                               ; preds = %35
  br label %40

40:                                               ; preds = %39
  store i64 -1, ptr %4, align 8
  br label %126

41:                                               ; No predecessors!
  br label %42

42:                                               ; preds = %41
  br label %43

43:                                               ; preds = %42, %20
  br label %44

44:                                               ; preds = %43, %13
  %45 = call i32 @H5CX_push()
  %46 = icmp slt i32 %45, 0
  %47 = xor i1 %46, true
  %48 = xor i1 %47, true
  %49 = zext i1 %48 to i32
  %50 = sext i32 %49 to i64
  %51 = icmp ne i64 %50, 0
  br i1 %51, label %52, label %67

52:                                               ; preds = %44
  br label %53

53:                                               ; preds = %52
  br label %54

54:                                               ; preds = %53
  br label %55

55:                                               ; preds = %54
  %56 = load i64, ptr @H5E_FUNC_g, align 8
  %57 = load i64, ptr @H5E_CANTSET_g, align 8
  %58 = call i32 (ptr, ptr, i32, i64, i64, ptr, ...) @H5E_printf_stack(ptr noundef @.str.2, ptr noundef @__func__.H5Tdecode, i32 noundef 3222, i64 noundef %56, i64 noundef %57, ptr noundef @.str.222)
  br label %59

59:                                               ; preds = %55
  store i8 1, ptr %6, align 1
  %60 = load i8, ptr %6, align 1
  %61 = trunc i8 %60 to i1
  %62 = zext i1 %61 to i8
  store i8 %62, ptr %6, align 1
  br label %63

63:                                               ; preds = %59
  br label %64

64:                                               ; preds = %63
  store i64 -1, ptr %4, align 8
  br label %126

65:                                               ; No predecessors!
  br label %66

66:                                               ; preds = %65
  br label %68

67:                                               ; preds = %44
  store i8 1, ptr %5, align 1
  br label %68

68:                                               ; preds = %67, %66
  %69 = call i32 @H5E_clear_stack()
  %70 = load ptr, ptr %2, align 8
  %71 = icmp eq ptr %70, null
  br i1 %71, label %72, label %87

72:                                               ; preds = %68
  br label %73

73:                                               ; preds = %72
  br label %74

74:                                               ; preds = %73
  br label %75

75:                                               ; preds = %74
  %76 = load i64, ptr @H5E_ARGS_g, align 8
  %77 = load i64, ptr @H5E_BADVALUE_g, align 8
  %78 = call i32 (ptr, ptr, i32, i64, i64, ptr, ...) @H5E_printf_stack(ptr noundef @.str.2, ptr noundef @__func__.H5Tdecode, i32 noundef 3226, i64 noundef %76, i64 noundef %77, ptr noundef @.str.280)
  br label %79

79:                                               ; preds = %75
  store i8 1, ptr %6, align 1
  %80 = load i8, ptr %6, align 1
  %81 = trunc i8 %80 to i1
  %82 = zext i1 %81 to i8
  store i8 %82, ptr %6, align 1
  br label %83

83:                                               ; preds = %79
  br label %84

84:                                               ; preds = %83
  store i64 -1, ptr %4, align 8
  br label %126

85:                                               ; No predecessors!
  br label %86

86:                                               ; preds = %85
  br label %87

87:                                               ; preds = %86, %68
  %88 = load ptr, ptr %2, align 8
  %89 = call ptr @H5T_decode(i64 noundef -1, ptr noundef %88)
  store ptr %89, ptr %3, align 8
  %90 = icmp eq ptr null, %89
  br i1 %90, label %91, label %106

91:                                               ; preds = %87
  br label %92

92:                                               ; preds = %91
  br label %93

93:                                               ; preds = %92
  br label %94

94:                                               ; preds = %93
  %95 = load i64, ptr @H5E_DATATYPE_g, align 8
  %96 = load i64, ptr @H5E_CANTDECODE_g, align 8
  %97 = call i32 (ptr, ptr, i32, i64, i64, ptr, ...) @H5E_printf_stack(ptr noundef @.str.2, ptr noundef @__func__.H5Tdecode, i32 noundef 3235, i64 noundef %95, i64 noundef %96, ptr noundef @.str.281)
  br label %98

98:                                               ; preds = %94
  store i8 1, ptr %6, align 1
  %99 = load i8, ptr %6, align 1
  %100 = trunc i8 %99 to i1
  %101 = zext i1 %100 to i8
  store i8 %101, ptr %6, align 1
  br label %102

102:                                              ; preds = %98
  br label %103

103:                                              ; preds = %102
  store i64 -1, ptr %4, align 8
  br label %126

104:                                              ; No predecessors!
  br label %105

105:                                              ; preds = %104
  br label %106

106:                                              ; preds = %105, %87
  %107 = load ptr, ptr %3, align 8
  %108 = call i64 @H5I_register(i32 noundef 3, ptr noundef %107, i1 noundef zeroext true)
  store i64 %108, ptr %4, align 8
  %109 = icmp slt i64 %108, 0
  br i1 %109, label %110, label %125

110:                                              ; preds = %106
  br label %111

111:                                              ; preds = %110
  br label %112

112:                                              ; preds = %111
  br label %113

113:                                              ; preds = %112
  %114 = load i64, ptr @H5E_DATATYPE_g, align 8
  %115 = load i64, ptr @H5E_CANTREGISTER_g, align 8
  %116 = call i32 (ptr, ptr, i32, i64, i64, ptr, ...) @H5E_printf_stack(ptr noundef @.str.2, ptr noundef @__func__.H5Tdecode, i32 noundef 3239, i64 noundef %114, i64 noundef %115, ptr noundef @.str.282)
  br label %117

117:                                              ; preds = %113
  store i8 1, ptr %6, align 1
  %118 = load i8, ptr %6, align 1
  %119 = trunc i8 %118 to i1
  %120 = zext i1 %119 to i8
  store i8 %120, ptr %6, align 1
  br label %121

121:                                              ; preds = %117
  br label %122

122:                                              ; preds = %121
  store i64 -1, ptr %4, align 8
  br label %126

123:                                              ; No predecessors!
  br label %124

124:                                              ; preds = %123
  br label %125

125:                                              ; preds = %124, %106
  br label %126

126:                                              ; preds = %125, %122, %103, %84, %64, %40
  %127 = load i8, ptr %5, align 1
  %128 = trunc i8 %127 to i1
  %129 = xor i1 %128, true
  %130 = xor i1 %129, true
  %131 = zext i1 %130 to i32
  %132 = sext i32 %131 to i64
  %133 = icmp ne i64 %132, 0
  br i1 %133, label %134, label %136

134:                                              ; preds = %126
  %135 = call i32 @H5CX_pop(i1 noundef zeroext true)
  store i8 0, ptr %5, align 1
  br label %136

136:                                              ; preds = %134, %126
  %137 = load i8, ptr %6, align 1
  %138 = trunc i8 %137 to i1
  %139 = xor i1 %138, true
  %140 = xor i1 %139, true
  %141 = zext i1 %140 to i32
  %142 = sext i32 %141 to i64
  %143 = icmp ne i64 %142, 0
  br i1 %143, label %144, label %146

144:                                              ; preds = %136
  %145 = call i32 @H5E_dump_api_stack()
  br label %146

146:                                              ; preds = %144, %136
  %147 = load i64, ptr %4, align 8
  ret i64 %147
}