; Function Attrs: nounwind uwtable
define range(i64 -1, -9223372036854775808) i64 @H5Tdecode(ptr noundef %0) local_unnamed_addr #0 {
  %2 = load i8, ptr @H5_libinit_g, align 1
  %3 = trunc i8 %2 to i1
  %4 = load i8, ptr @H5_libterm_g, align 1
  %5 = trunc i8 %4 to i1
  %6 = select i1 %3, i1 true, i1 %5
  br i1 %6, label %14, label %7

7:                                                ; preds = %1
  %8 = tail call i32 @H5_init_library() #17
  %9 = icmp slt i32 %8, 0
  br i1 %9, label %10, label %14

10:                                               ; preds = %7
  %11 = load i64, ptr @H5E_FUNC_g, align 8
  %12 = load i64, ptr @H5E_CANTINIT_g, align 8
  %13 = tail call i32 (ptr, ptr, i32, i64, i64, ptr, ...) @H5E_printf_stack(ptr noundef nonnull @.str.2, ptr noundef nonnull @__func__.H5Tdecode, i32 noundef 3222, i64 noundef %11, i64 noundef %12, ptr noundef nonnull @.str.221) #17
  br label %.thread23

14:                                               ; preds = %7, %1
  %15 = tail call i32 @H5CX_push() #17
  %16 = icmp slt i32 %15, 0
  br i1 %16, label %17, label %21

17:                                               ; preds = %14
  %18 = load i64, ptr @H5E_FUNC_g, align 8
  %19 = load i64, ptr @H5E_CANTSET_g, align 8
  %20 = tail call i32 (ptr, ptr, i32, i64, i64, ptr, ...) @H5E_printf_stack(ptr noundef nonnull @.str.2, ptr noundef nonnull @__func__.H5Tdecode, i32 noundef 3222, i64 noundef %18, i64 noundef %19, ptr noundef nonnull @.str.222) #17
  br label %.thread23

21:                                               ; preds = %14
  %22 = tail call i32 @H5E_clear_stack() #17
  %23 = icmp eq ptr %0, null
  br i1 %23, label %24, label %28

24:                                               ; preds = %21
  %25 = load i64, ptr @H5E_ARGS_g, align 8
  %26 = load i64, ptr @H5E_BADVALUE_g, align 8
  %27 = tail call i32 (ptr, ptr, i32, i64, i64, ptr, ...) @H5E_printf_stack(ptr noundef nonnull @.str.2, ptr noundef nonnull @__func__.H5Tdecode, i32 noundef 3226, i64 noundef %25, i64 noundef %26, ptr noundef nonnull @.str.280) #17
  br label %.thread29

28:                                               ; preds = %21
  %29 = tail call ptr @H5T_decode(i64 noundef -1, ptr noundef nonnull %0)
  %30 = icmp eq ptr %29, null
  br i1 %30, label %31, label %35

31:                                               ; preds = %28
  %32 = load i64, ptr @H5E_DATATYPE_g, align 8
  %33 = load i64, ptr @H5E_CANTDECODE_g, align 8
  %34 = tail call i32 (ptr, ptr, i32, i64, i64, ptr, ...) @H5E_printf_stack(ptr noundef nonnull @.str.2, ptr noundef nonnull @__func__.H5Tdecode, i32 noundef 3235, i64 noundef %32, i64 noundef %33, ptr noundef nonnull @.str.281) #17
  br label %.thread29

35:                                               ; preds = %28
  %36 = tail call i64 @H5I_register(i32 noundef 3, ptr noundef nonnull %29, i1 noundef zeroext true) #17
  %37 = icmp slt i64 %36, 0
  br i1 %37, label %38, label %43

38:                                               ; preds = %35
  %39 = load i64, ptr @H5E_DATATYPE_g, align 8
  %40 = load i64, ptr @H5E_CANTREGISTER_g, align 8
  %41 = tail call i32 (ptr, ptr, i32, i64, i64, ptr, ...) @H5E_printf_stack(ptr noundef nonnull @.str.2, ptr noundef nonnull @__func__.H5Tdecode, i32 noundef 3239, i64 noundef %39, i64 noundef %40, ptr noundef nonnull @.str.282) #17
  br label %.thread29

.thread29:                                        ; preds = %38, %31, %24
  %42 = tail call i32 @H5CX_pop(i1 noundef zeroext true) #17
  br label %.thread23

43:                                               ; preds = %35
  %44 = tail call i32 @H5CX_pop(i1 noundef zeroext true) #17
  br label %46

.thread23:                                        ; preds = %17, %10, %.thread29
  %45 = tail call i32 @H5E_dump_api_stack() #17
  br label %46

46:                                               ; preds = %43, %.thread23
  %.0111826 = phi i64 [ -1, %.thread23 ], [ %36, %43 ]
  ret i64 %.0111826
}